target datalayout = "e-m:e-p270:32:32-p271:32:32-p272:64:64-i64:64-i128:128-f80:128-n8:16:32:64-S128"
target triple = "x86_64-pc-linux-gnu"

%struct.transcoder_entry_t = type { ptr, ptr, ptr, ptr }
%struct.rb_econv_t = type { i32, i32, ptr, ptr, ptr, i64, ptr, ptr, ptr, ptr, ptr, ptr, i32, i32, i32, i32, ptr, %struct.anon, ptr, ptr }
%struct.anon = type { i32, ptr, ptr, ptr, ptr, i64, i64 }
%struct.RString = type { %struct.RBasic, i64, %union.anon.1 }
%struct.RBasic = type { i64, i64 }
%union.anon.1 = type { %struct.anon.2 }
%struct.anon.2 = type { ptr, %union.anon.3 }
%union.anon.3 = type { i64 }
%struct.anon.4 = type { [1 x i8] }
%struct.rb_econv_init_by_convpath_t = type { ptr, i32, i32 }

@transcoder_table = internal global ptr null, align 8
@transcoder_lib_prefix = internal constant [11 x i8] c"enc/trans/\00", align 1

; Function Attrs: inlinehint nounwind sspstrong willreturn memory(read) uwtable
define internal i64 @RB_FL_TEST_RAW(i64 noundef %0, i64 noundef %1) #11 {
  %3 = alloca i64, align 8
  %4 = alloca i64, align 8
  store i64 %0, ptr %3, align 8, !tbaa !12
  store i64 %1, ptr %4, align 8, !tbaa !12
  %5 = load i64, ptr %3, align 8, !tbaa !12
  %6 = inttoptr i64 %5 to ptr
  %7 = getelementptr inbounds nuw %struct.RBasic, ptr %6, i32 0, i32 0
  %8 = load i64, ptr %7, align 8, !tbaa !212
  %9 = load i64, ptr %4, align 8, !tbaa !12
  %10 = and i64 %8, %9
  ret i64 %10
}

; Function Attrs: inlinehint nounwind sspstrong willreturn memory(read) uwtable
define internal i64 @RSTRING_LEN(i64 noundef %0) #11 {
  %2 = alloca i64, align 8
  store i64 %0, ptr %2, align 8, !tbaa !12
  %3 = load i64, ptr %2, align 8, !tbaa !12
  %4 = inttoptr i64 %3 to ptr
  %5 = getelementptr inbounds nuw %struct.RString, ptr %4, i32 0, i32 1
  %6 = load i64, ptr %5, align 8, !tbaa !108
  ret i64 %6
}

; Function Attrs: inlinehint nounwind sspstrong willreturn memory(read) uwtable
define internal zeroext i1 @RB_FL_ANY_RAW(i64 noundef %0, i64 noundef %1) #11 {
  %3 = alloca i64, align 8
  %4 = alloca i64, align 8
  store i64 %0, ptr %3, align 8, !tbaa !12
  store i64 %1, ptr %4, align 8, !tbaa !12
  %5 = load i64, ptr %3, align 8, !tbaa !12
  %6 = load i64, ptr %4, align 8, !tbaa !12
  %7 = call i64 @RB_FL_TEST_RAW(i64 noundef %5, i64 noundef %6) #29
  %8 = icmp ne i64 %7, 0
  ret i1 %8
}

; Function Attrs: alwaysinline nounwind
define internal ptr @memcpy.inline(ptr noalias nonnull %0, ptr noalias nonnull %1, i64 %2) #6 {
  %4 = alloca ptr, align 8
  %5 = alloca ptr, align 8
  %6 = alloca i64, align 8
  store ptr %0, ptr %4, align 8, !tbaa !23
  store ptr %1, ptr %5, align 8, !tbaa !23
  store i64 %2, ptr %6, align 8, !tbaa !12
  %7 = load ptr, ptr %4, align 8, !tbaa !23
  %8 = load ptr, ptr %5, align 8, !tbaa !23
  %9 = load i64, ptr %6, align 8, !tbaa !12
  %10 = load ptr, ptr %4, align 8, !tbaa !23
  %11 = call i64 @llvm.objectsize.i64.p0(ptr %10, i1 false, i1 true, i1 false)
  %12 = call ptr @__memcpy_chk(ptr noundef %7, ptr noundef %8, i64 noundef %9, i64 noundef %11) #25
  ret ptr %12
}

; Function Attrs: inlinehint nounwind sspstrong willreturn memory(read, argmem: readwrite) uwtable
define internal void @rbimpl_rstring_getmem(ptr dead_on_unwind noalias writable sret(%struct.RString) align 8 %0, i64 noundef %1) #22 {
  %3 = alloca i64, align 8
  store i64 %1, ptr %3, align 8, !tbaa !12
  %4 = load i64, ptr %3, align 8, !tbaa !12
  %5 = call zeroext i1 @RB_FL_ANY_RAW(i64 noundef %4, i64 noundef 8192) #29
  br i1 %5, label %6, label %9

6:                                                ; preds = %2
  %7 = load i64, ptr %3, align 8, !tbaa !12
  %8 = inttoptr i64 %7 to ptr
  call void @llvm.memcpy.p0.p0.i64(ptr align 8 %0, ptr align 8 %8, i64 40, i1 false), !tbaa.struct !211
  br label %20

9:                                                ; preds = %2
  %10 = load i64, ptr %3, align 8, !tbaa !12
  %11 = call i64 @RSTRING_LEN(i64 noundef %10) #29
  %12 = getelementptr inbounds nuw %struct.RString, ptr %0, i32 0, i32 1
  store i64 %11, ptr %12, align 8, !tbaa !108
  %13 = load i64, ptr %3, align 8, !tbaa !12
  %14 = inttoptr i64 %13 to ptr
  %15 = getelementptr inbounds nuw %struct.RString, ptr %14, i32 0, i32 2
  %16 = getelementptr inbounds nuw %struct.anon.4, ptr %15, i32 0, i32 0
  %17 = getelementptr inbounds [1 x i8], ptr %16, i64 0, i64 0
  %18 = getelementptr inbounds nuw %struct.RString, ptr %0, i32 0, i32 2
  %19 = getelementptr inbounds nuw %struct.anon.2, ptr %18, i32 0, i32 0
  store ptr %17, ptr %19, align 8, !tbaa !41
  br label %20

20:                                               ; preds = %9, %6
  ret void
}

; Function Attrs: inlinehint nounwind sspstrong memory(argmem: readwrite, inaccessiblemem: readwrite) uwtable
define internal nonnull ptr @ruby_nonempty_memcpy(ptr noundef nonnull %0, ptr noundef %1, i64 noundef %2) #9 {
  %4 = alloca ptr, align 8
  %5 = alloca ptr, align 8
  %6 = alloca ptr, align 8
  %7 = alloca i64, align 8
  store ptr %0, ptr %5, align 8, !tbaa !23
  store ptr %1, ptr %6, align 8, !tbaa !23
  store i64 %2, ptr %7, align 8, !tbaa !12
  %8 = load i64, ptr %7, align 8, !tbaa !12
  %9 = icmp ne i64 %8, 0
  br i1 %9, label %10, label %15

10:                                               ; preds = %3
  %11 = load ptr, ptr %5, align 8, !tbaa !23
  %12 = load ptr, ptr %6, align 8, !tbaa !23
  %13 = load i64, ptr %7, align 8, !tbaa !12
  %14 = call ptr @memcpy.inline(ptr noundef %11, ptr noundef %12, i64 noundef %13) #25
  store ptr %14, ptr %4, align 8
  br label %17

15:                                               ; preds = %3
  %16 = load ptr, ptr %5, align 8, !tbaa !23
  store ptr %16, ptr %4, align 8
  br label %17

17:                                               ; preds = %15, %10
  %18 = load ptr, ptr %4, align 8
  ret ptr %18
}

; Function Attrs: inlinehint nounwind sspstrong uwtable
define internal ptr @RSTRING_PTR(i64 noundef %0) #7 {
  %2 = alloca i64, align 8
  %3 = alloca ptr, align 8
  %4 = alloca %struct.RString, align 8
  store i64 %0, ptr %2, align 8, !tbaa !12
  call void @llvm.lifetime.start.p0(i64 8, ptr %3) #25
  %5 = load i64, ptr %2, align 8, !tbaa !12
  call void @rbimpl_rstring_getmem(ptr dead_on_unwind writable sret(%struct.RString) align 8 %4, i64 noundef %5) #32
  %6 = getelementptr inbounds nuw %struct.RString, ptr %4, i32 0, i32 2
  %7 = getelementptr inbounds nuw %struct.anon.2, ptr %6, i32 0, i32 0
  %8 = load ptr, ptr %7, align 8, !tbaa !41
  store ptr %8, ptr %3, align 8, !tbaa !21
  %9 = load ptr, ptr %3, align 8, !tbaa !21
  call void @llvm.lifetime.end.p0(i64 8, ptr %3) #25
  ret ptr %9
}

; Function Attrs: nounwind sspstrong uwtable
define internal ptr @load_transcoder_entry(ptr noundef %0) #0 {
  %2 = alloca ptr, align 8
  %3 = alloca ptr, align 8
  %4 = alloca ptr, align 8
  %5 = alloca i64, align 8
  %6 = alloca i64, align 8
  %7 = alloca i64, align 8
  %8 = alloca ptr, align 8
  store ptr %0, ptr %3, align 8, !tbaa !23
  %9 = load ptr, ptr %3, align 8, !tbaa !23
  %10 = getelementptr inbounds nuw %struct.transcoder_entry_t, ptr %9, i32 0, i32 3
  %11 = load ptr, ptr %10, align 8, !tbaa !24
  %12 = icmp ne ptr %11, null
  br i1 %12, label %13, label %17

13:                                               ; preds = %1
  %14 = load ptr, ptr %3, align 8, !tbaa !23
  %15 = getelementptr inbounds nuw %struct.transcoder_entry_t, ptr %14, i32 0, i32 3
  %16 = load ptr, ptr %15, align 8, !tbaa !24
  store ptr %16, ptr %2, align 8
  br label %60

17:                                               ; preds = %1
  %18 = load ptr, ptr %3, align 8, !tbaa !23
  %19 = getelementptr inbounds nuw %struct.transcoder_entry_t, ptr %18, i32 0, i32 2
  %20 = load ptr, ptr %19, align 8, !tbaa !28
  %21 = icmp ne ptr %20, null
  br i1 %21, label %22, label %50

22:                                               ; preds = %17
  call void @llvm.lifetime.start.p0(i64 8, ptr %4) #25
  %23 = load ptr, ptr %3, align 8, !tbaa !23
  %24 = getelementptr inbounds nuw %struct.transcoder_entry_t, ptr %23, i32 0, i32 2
  %25 = load ptr, ptr %24, align 8, !tbaa !28
  store ptr %25, ptr %4, align 8, !tbaa !21
  call void @llvm.lifetime.start.p0(i64 8, ptr %5) #25
  %26 = load ptr, ptr %4, align 8, !tbaa !21
  %27 = call i64 @strlen(ptr noundef %26) #29
  store i64 %27, ptr %5, align 8, !tbaa !12
  call void @llvm.lifetime.start.p0(i64 8, ptr %6) #25
  %28 = load i64, ptr %5, align 8, !tbaa !12
  %29 = add i64 10, %28
  store i64 %29, ptr %6, align 8, !tbaa !12
  call void @llvm.lifetime.start.p0(i64 8, ptr %7) #25
  %30 = load i64, ptr %6, align 8, !tbaa !12
  %31 = call i1 @llvm.is.constant.i64(i64 %30)
  %32 = select i1 %31, ptr @rb_str_new_static, ptr @rb_str_new
  %33 = load i64, ptr %6, align 8, !tbaa !12
  %34 = call i64 %32(ptr noundef null, i64 noundef %33)
  store i64 %34, ptr %7, align 8, !tbaa !12
  call void @llvm.lifetime.start.p0(i64 8, ptr %8) #25
  %35 = load i64, ptr %7, align 8, !tbaa !12
  %36 = call ptr @RSTRING_PTR(i64 noundef %35)
  store ptr %36, ptr %8, align 8, !tbaa !21
  %37 = load ptr, ptr %8, align 8, !tbaa !21
  %38 = call nonnull ptr @ruby_nonempty_memcpy(ptr noundef %37, ptr noundef @transcoder_lib_prefix, i64 noundef 10) #28
  %39 = load ptr, ptr %8, align 8, !tbaa !21
  %40 = getelementptr i8, ptr %39, i64 11
  %41 = getelementptr i8, ptr %40, i64 -1
  %42 = load ptr, ptr %4, align 8, !tbaa !21
  %43 = load i64, ptr %5, align 8, !tbaa !12
  %44 = call nonnull ptr @ruby_nonempty_memcpy(ptr noundef %41, ptr noundef %42, i64 noundef %43) #28
  %45 = load i64, ptr %7, align 8, !tbaa !12
  %46 = load i64, ptr %6, align 8, !tbaa !12
  call void @rb_str_set_len(i64 noundef %45, i64 noundef %46)
  %47 = load i64, ptr %7, align 8, !tbaa !12
  call void @rb_obj_freeze_inline(i64 noundef %47)
  %48 = load i64, ptr %7, align 8, !tbaa !12
  %49 = call i32 @rb_require_internal_silent(i64 noundef %48)
  call void @llvm.lifetime.end.p0(i64 8, ptr %8) #25
  call void @llvm.lifetime.end.p0(i64 8, ptr %7) #25
  call void @llvm.lifetime.end.p0(i64 8, ptr %6) #25
  call void @llvm.lifetime.end.p0(i64 8, ptr %5) #25
  call void @llvm.lifetime.end.p0(i64 8, ptr %4) #25
  br label %50

50:                                               ; preds = %22, %17
  %51 = load ptr, ptr %3, align 8, !tbaa !23
  %52 = getelementptr inbounds nuw %struct.transcoder_entry_t, ptr %51, i32 0, i32 3
  %53 = load ptr, ptr %52, align 8, !tbaa !24
  %54 = icmp ne ptr %53, null
  br i1 %54, label %55, label %59

55:                                               ; preds = %50
  %56 = load ptr, ptr %3, align 8, !tbaa !23
  %57 = getelementptr inbounds nuw %struct.transcoder_entry_t, ptr %56, i32 0, i32 3
  %58 = load ptr, ptr %57, align 8, !tbaa !24
  store ptr %58, ptr %2, align 8
  br label %60

59:                                               ; preds = %50
  store ptr null, ptr %2, align 8
  br label %60

60:                                               ; preds = %59, %55, %13
  %61 = load ptr, ptr %2, align 8
  ret ptr %61
}

; Function Attrs: nounwind sspstrong uwtable
define internal ptr @get_transcoder_entry(ptr noundef %0, ptr noundef %1) #0 {
  %3 = alloca ptr, align 8
  %4 = alloca ptr, align 8
  %5 = alloca ptr, align 8
  %6 = alloca i64, align 8
  %7 = alloca ptr, align 8
  %8 = alloca i32, align 4
  store ptr %0, ptr %4, align 8, !tbaa !21
  store ptr %1, ptr %5, align 8, !tbaa !21
  call void @llvm.lifetime.start.p0(i64 8, ptr %6) #25
  call void @llvm.lifetime.start.p0(i64 8, ptr %7) #25
  %9 = load ptr, ptr @transcoder_table, align 8, !tbaa !7
  %10 = load ptr, ptr %4, align 8, !tbaa !21
  %11 = ptrtoint ptr %10 to i64
  %12 = call i32 @rb_st_lookup(ptr noundef %9, i64 noundef %11, ptr noundef %6)
  %13 = icmp ne i32 %12, 0
  br i1 %13, label %15, label %14

14:                                               ; preds = %2
  store ptr null, ptr %3, align 8
  store i32 1, ptr %8, align 4
  br label %27

15:                                               ; preds = %2
  %16 = load i64, ptr %6, align 8, !tbaa !12
  %17 = inttoptr i64 %16 to ptr
  store ptr %17, ptr %7, align 8, !tbaa !7
  %18 = load ptr, ptr %7, align 8, !tbaa !7
  %19 = load ptr, ptr %5, align 8, !tbaa !21
  %20 = ptrtoint ptr %19 to i64
  %21 = call i32 @rb_st_lookup(ptr noundef %18, i64 noundef %20, ptr noundef %6)
  %22 = icmp ne i32 %21, 0
  br i1 %22, label %24, label %23

23:                                               ; preds = %15
  store ptr null, ptr %3, align 8
  store i32 1, ptr %8, align 4
  br label %27

24:                                               ; preds = %15
  %25 = load i64, ptr %6, align 8, !tbaa !12
  %26 = inttoptr i64 %25 to ptr
  store ptr %26, ptr %3, align 8
  store i32 1, ptr %8, align 4
  br label %27

27:                                               ; preds = %24, %23, %14
  call void @llvm.lifetime.end.p0(i64 8, ptr %7) #25
  call void @llvm.lifetime.end.p0(i64 8, ptr %6) #25
  %28 = load ptr, ptr %3, align 8
  ret ptr %28
}

; Function Attrs: nounwind sspstrong uwtable
define internal i32 @rb_econv_add_converter(ptr noundef %0, ptr noundef %1, ptr noundef %2, i32 noundef %3) #0 {
  %5 = alloca i32, align 4
  %6 = alloca ptr, align 8
  %7 = alloca ptr, align 8
  %8 = alloca ptr, align 8
  %9 = alloca i32, align 4
  %10 = alloca ptr, align 8
  %11 = alloca ptr, align 8
  %12 = alloca i32, align 4
  store ptr %0, ptr %6, align 8, !tbaa !30
  store ptr %1, ptr %7, align 8, !tbaa !21
  store ptr %2, ptr %8, align 8, !tbaa !21
  store i32 %3, ptr %9, align 4, !tbaa !29
  call void @llvm.lifetime.start.p0(i64 8, ptr %10) #25
  call void @llvm.lifetime.start.p0(i64 8, ptr %11) #25
  %13 = load ptr, ptr %6, align 8, !tbaa !30
  %14 = getelementptr inbounds nuw %struct.rb_econv_t, ptr %13, i32 0, i32 1
  %15 = load i32, ptr %14, align 4, !tbaa !59
  %16 = icmp ne i32 %15, 0
  br i1 %16, label %17, label %18

17:                                               ; preds = %4
  store i32 -1, ptr %5, align 4
  store i32 1, ptr %12, align 4
  br label %36

18:                                               ; preds = %4
  %19 = load ptr, ptr %7, align 8, !tbaa !21
  %20 = load ptr, ptr %8, align 8, !tbaa !21
  %21 = call ptr @get_transcoder_entry(ptr noundef %19, ptr noundef %20)
  store ptr %21, ptr %10, align 8, !tbaa !23
  %22 = load ptr, ptr %10, align 8, !tbaa !23
  %23 = icmp ne ptr %22, null
  br i1 %23, label %25, label %24

24:                                               ; preds = %18
  store i32 -1, ptr %5, align 4
  store i32 1, ptr %12, align 4
  br label %36

25:                                               ; preds = %18
  %26 = load ptr, ptr %10, align 8, !tbaa !23
  %27 = call ptr @load_transcoder_entry(ptr noundef %26)
  store ptr %27, ptr %11, align 8, !tbaa !14
  %28 = load ptr, ptr %11, align 8, !tbaa !14
  %29 = icmp ne ptr %28, null
  br i1 %29, label %31, label %30

30:                                               ; preds = %25
  store i32 -1, ptr %5, align 4
  store i32 1, ptr %12, align 4
  br label %36

31:                                               ; preds = %25
  %32 = load ptr, ptr %6, align 8, !tbaa !30
  %33 = load ptr, ptr %11, align 8, !tbaa !14
  %34 = load i32, ptr %9, align 4, !tbaa !29
  %35 = call i32 @rb_econv_add_transcoder_at(ptr noundef %32, ptr noundef %33, i32 noundef %34)
  store i32 %35, ptr %5, align 4
  store i32 1, ptr %12, align 4
  br label %36

36:                                               ; preds = %31, %30, %24, %17
  call void @llvm.lifetime.end.p0(i64 8, ptr %11) #25
  call void @llvm.lifetime.end.p0(i64 8, ptr %10) #25
  %37 = load i32, ptr %5, align 4
  ret i32 %37
}

; Function Attrs: nounwind sspstrong uwtable
define internal void @rb_econv_init_by_convpath_i(ptr noundef %0, ptr noundef %1, i32 noundef %2, ptr noundef %3) #0 {
  %5 = alloca ptr, align 8
  %6 = alloca ptr, align 8
  %7 = alloca i32, align 4
  %8 = alloca ptr, align 8
  %9 = alloca ptr, align 8
  %10 = alloca i32, align 4
  %11 = alloca i32, align 4
  store ptr %0, ptr %5, align 8, !tbaa !21
  store ptr %1, ptr %6, align 8, !tbaa !21
  store i32 %2, ptr %7, align 4, !tbaa !29
  store ptr %3, ptr %8, align 8, !tbaa !23
  call void @llvm.lifetime.start.p0(i64 8, ptr %9) #25
  %12 = load ptr, ptr %8, align 8, !tbaa !23
  store ptr %12, ptr %9, align 8, !tbaa !236
  call void @llvm.lifetime.start.p0(i64 4, ptr %10) #25
  %13 = load ptr, ptr %9, align 8, !tbaa !236
  %14 = getelementptr inbounds nuw %struct.rb_econv_init_by_convpath_t, ptr %13, i32 0, i32 2
  %15 = load i32, ptr %14, align 4, !tbaa !232
  %16 = icmp eq i32 %15, -1
  br i1 %16, label %17, label %18

17:                                               ; preds = %4
  store i32 1, ptr %11, align 4
  br label %31

18:                                               ; preds = %4
  %19 = load ptr, ptr %9, align 8, !tbaa !236
  %20 = getelementptr inbounds nuw %struct.rb_econv_init_by_convpath_t, ptr %19, i32 0, i32 0
  %21 = load ptr, ptr %20, align 8, !tbaa !229
  %22 = load ptr, ptr %5, align 8, !tbaa !21
  %23 = load ptr, ptr %6, align 8, !tbaa !21
  %24 = load ptr, ptr %9, align 8, !tbaa !236
  %25 = getelementptr inbounds nuw %struct.rb_econv_init_by_convpath_t, ptr %24, i32 0, i32 1
  %26 = load i32, ptr %25, align 8, !tbaa !231
  %27 = call i32 @rb_econv_add_converter(ptr noundef %21, ptr noundef %22, ptr noundef %23, i32 noundef %26)
  store i32 %27, ptr %10, align 4, !tbaa !29
  %28 = load i32, ptr %10, align 4, !tbaa !29
  %29 = load ptr, ptr %9, align 8, !tbaa !236
  %30 = getelementptr inbounds nuw %struct.rb_econv_init_by_convpath_t, ptr %29, i32 0, i32 2
  store i32 %28, ptr %30, align 4, !tbaa !232
  store i32 1, ptr %11, align 4
  br label %31

31:                                               ; preds = %18, %17
  call void @llvm.lifetime.end.p0(i64 4, ptr %10) #25
  call void @llvm.lifetime.end.p0(i64 8, ptr %9) #25
  ret void
}