; Function Attrs: nounwind sspstrong uwtable
define internal void @rb_econv_init_by_convpath_i(ptr noundef %0, ptr noundef %1, i32 %2, ptr noundef captures(none) %3) #0 {
  %5 = alloca i64, align 8
  %6 = getelementptr inbounds nuw i8, ptr %3, i64 12
  %7 = load i32, ptr %6, align 4, !tbaa !214
  %8 = icmp eq i32 %7, -1
  br i1 %8, label %44, label %9

9:                                                ; preds = %4
  %10 = load ptr, ptr %3, align 8, !tbaa !210
  %11 = getelementptr inbounds nuw i8, ptr %3, i64 8
  %12 = load i32, ptr %11, align 8, !tbaa !213
  %13 = getelementptr inbounds nuw i8, ptr %10, i64 4
  %14 = load i32, ptr %13, align 4, !tbaa !59
  %.not.i = icmp eq i32 %14, 0
  br i1 %.not.i, label %15, label %rb_econv_add_converter.exit

15:                                               ; preds = %9
  call void @llvm.lifetime.start.p0(i64 8, ptr nonnull %5) #22
  %16 = load ptr, ptr @transcoder_table, align 8, !tbaa !7
  %17 = ptrtoint ptr %0 to i64
  %18 = call i32 @rb_st_lookup(ptr noundef %16, i64 noundef %17, ptr noundef nonnull %5) #22
  %.not.i.i = icmp eq i32 %18, 0
  br i1 %.not.i.i, label %get_transcoder_entry.exit.thread.i, label %19

19:                                               ; preds = %15
  %20 = load i64, ptr %5, align 8, !tbaa !22
  %21 = inttoptr i64 %20 to ptr
  %22 = ptrtoint ptr %1 to i64
  %23 = call i32 @rb_st_lookup(ptr noundef %21, i64 noundef %22, ptr noundef nonnull %5) #22
  %.not4.i.i = icmp eq i32 %23, 0
  br i1 %.not4.i.i, label %get_transcoder_entry.exit.thread.i, label %get_transcoder_entry.exit.i

get_transcoder_entry.exit.thread.i:               ; preds = %19, %15
  call void @llvm.lifetime.end.p0(i64 8, ptr nonnull %5) #22
  br label %rb_econv_add_converter.exit

get_transcoder_entry.exit.i:                      ; preds = %19
  %24 = load i64, ptr %5, align 8, !tbaa !22
  %25 = inttoptr i64 %24 to ptr
  call void @llvm.lifetime.end.p0(i64 8, ptr nonnull %5) #22
  %.not11.i = icmp eq i64 %24, 0
  br i1 %.not11.i, label %rb_econv_add_converter.exit, label %26

26:                                               ; preds = %get_transcoder_entry.exit.i
  %27 = getelementptr inbounds nuw i8, ptr %25, i64 24
  %28 = load ptr, ptr %27, align 8, !tbaa !19
  %.not.i13.i = icmp eq ptr %28, null
  br i1 %.not.i13.i, label %29, label %load_transcoder_entry.exit.thread19.i

29:                                               ; preds = %26
  %30 = getelementptr inbounds nuw i8, ptr %25, i64 16
  %31 = load ptr, ptr %30, align 8, !tbaa !25
  %.not22.i.i = icmp eq ptr %31, null
  br i1 %.not22.i.i, label %rb_econv_add_converter.exit, label %32

32:                                               ; preds = %29
  %33 = call i64 @strlen(ptr noundef nonnull dereferenceable(1) %31) #25
  %34 = add i64 %33, 10
  %35 = call i64 @rb_str_new(ptr noundef null, i64 noundef %34) #22, !callees !32
  %36 = inttoptr i64 %35 to ptr
  %37 = load i64, ptr %36, align 8, !tbaa !33, !noalias !308
  %38 = and i64 %37, 8192
  %.not.i.i.i.i = icmp eq i64 %38, 0
  %39 = getelementptr inbounds nuw i8, ptr %36, i64 24
  br i1 %.not.i.i.i.i, label %RSTRING_PTR.exit.i.i, label %40

40:                                               ; preds = %32
  %.sroa.2.0.copyload.i.i.i = load ptr, ptr %39, align 8
  br label %RSTRING_PTR.exit.i.i

RSTRING_PTR.exit.i.i:                             ; preds = %40, %32
  %.sroa.2.0.i.i.i = phi ptr [ %.sroa.2.0.copyload.i.i.i, %40 ], [ %39, %32 ]
  call void @llvm.memcpy.p0.p0.i64(ptr noundef nonnull align 1 dereferenceable(10) %.sroa.2.0.i.i.i, ptr noundef nonnull align 1 dereferenceable(10) @transcoder_lib_prefix, i64 noundef range(i64 1, 0) 10, i1 noundef false) #22
  %.not.i.i.i = icmp eq i64 %33, 0
  br i1 %.not.i.i.i, label %load_transcoder_entry.exit.i, label %41

41:                                               ; preds = %RSTRING_PTR.exit.i.i
  %42 = getelementptr i8, ptr %.sroa.2.0.i.i.i, i64 10
  call void @llvm.memcpy.p0.p0.i64(ptr noundef nonnull align 1 %42, ptr noundef nonnull readonly align 1 %31, i64 noundef range(i64 1, 0) %33, i1 noundef false) #22
  br label %load_transcoder_entry.exit.i

load_transcoder_entry.exit.i:                     ; preds = %41, %RSTRING_PTR.exit.i.i
  call void @rb_str_set_len(i64 noundef %35, i64 noundef %34) #22
  call void @rb_obj_freeze_inline(i64 noundef %35) #22
  %43 = call i32 @rb_require_internal_silent(i64 noundef %35) #22
  %.pre.i.i = load ptr, ptr %27, align 8, !tbaa !19
  %.not12.i = icmp eq ptr %.pre.i.i, null
  br i1 %.not12.i, label %rb_econv_add_converter.exit, label %load_transcoder_entry.exit.thread19.i

load_transcoder_entry.exit.thread19.i:            ; preds = %load_transcoder_entry.exit.i, %26
  %.0.i1422.i = phi ptr [ %.pre.i.i, %load_transcoder_entry.exit.i ], [ %28, %26 ]
  call fastcc void @rb_econv_add_transcoder_at(ptr noundef nonnull %10, ptr noundef nonnull %.0.i1422.i, i32 noundef %12)
  br label %rb_econv_add_converter.exit

rb_econv_add_converter.exit:                      ; preds = %9, %get_transcoder_entry.exit.thread.i, %get_transcoder_entry.exit.i, %29, %load_transcoder_entry.exit.i, %load_transcoder_entry.exit.thread19.i
  %.0.i = phi i32 [ 0, %load_transcoder_entry.exit.thread19.i ], [ -1, %9 ], [ -1, %get_transcoder_entry.exit.i ], [ -1, %load_transcoder_entry.exit.i ], [ -1, %get_transcoder_entry.exit.thread.i ], [ -1, %29 ]
  store i32 %.0.i, ptr %6, align 4, !tbaa !214
  br label %44

44:                                               ; preds = %4, %rb_econv_add_converter.exit
  ret void
}